---
triple:          'arm64-apple-darwin'
binary-path:     executable_valgrind
relocations:
  - { offsetInCU: 0x4F30, offset: 0x4F30, size: 0x8, addend: 0x0, symName: __ZNSt3__124__put_character_sequenceB8ue170006IcNS_11char_traitsIcEEEERNS_13basic_ostreamIT_T0_EES7_PKS4_m, symObjAddr: 0x4EBC, symBinAddr: 0x100006E54, symSize: 0x1EC }
  - { offsetInCU: 0x6D29, offset: 0x6D29, size: 0x8, addend: 0x0, symName: __ZNSt3__1lsB8ue170006INS_11char_traitsIcEEEERNS_13basic_ostreamIcT_EES6_PKc, symObjAddr: 0x54C, symBinAddr: 0x1000024E4, symSize: 0x48 }
  - { offsetInCU: 0x6D6F, offset: 0x6D6F, size: 0x8, addend: 0x0, symName: __ZNSt3__112__to_addressB8ue170006IN9HashTableINS_12basic_stringIcNS_11char_traitsIcEENS_9allocatorIcEEEEiNS_4hashIS7_EEE6BucketEEEPT_SD_, symObjAddr: 0x122C, symBinAddr: 0x1000031C4, symSize: 0x14 }
  - { offsetInCU: 0x6DA4, offset: 0x6DA4, size: 0x8, addend: 0x0, symName: __ZNSt3__119__libcpp_deallocateB8ue170006EPvmm, symObjAddr: 0x1378, symBinAddr: 0x100003310, symSize: 0x60 }
  - { offsetInCU: 0x6E09, offset: 0x6E09, size: 0x8, addend: 0x0, symName: __ZNSt3__124__is_overaligned_for_newB8ue170006Em, symObjAddr: 0x13D8, symBinAddr: 0x100003370, symSize: 0x20 }
  - { offsetInCU: 0x6E37, offset: 0x6E37, size: 0x8, addend: 0x0, symName: __ZNSt3__127__do_deallocate_handle_sizeB8ue170006IJSt11align_val_tEEEvPvmDpT_, symObjAddr: 0x13F8, symBinAddr: 0x100003390, symSize: 0x30 }
  - { offsetInCU: 0x6E8A, offset: 0x6E8A, size: 0x8, addend: 0x0, symName: __ZNSt3__127__do_deallocate_handle_sizeB8ue170006IJEEEvPvmDpT_, symObjAddr: 0x1428, symBinAddr: 0x1000033C0, symSize: 0x28 }
  - { offsetInCU: 0x6EC8, offset: 0x6EC8, size: 0x8, addend: 0x0, symName: __ZNSt3__124__libcpp_operator_deleteB8ue170006IJPvSt11align_val_tEEEvDpT_, symObjAddr: 0x1450, symBinAddr: 0x1000033E8, symSize: 0x2C }
  - { offsetInCU: 0x6F11, offset: 0x6F11, size: 0x8, addend: 0x0, symName: __ZNSt3__124__libcpp_operator_deleteB8ue170006IJPvEEEvDpT_, symObjAddr: 0x147C, symBinAddr: 0x100003414, symSize: 0x24 }
  - { offsetInCU: 0x6F46, offset: 0x6F46, size: 0x8, addend: 0x0, symName: __ZNSt3__13maxB8ue170006ImEERKT_S3_S3_, symObjAddr: 0x212C, symBinAddr: 0x1000040C4, symSize: 0x2C }
  - { offsetInCU: 0x6F89, offset: 0x6F89, size: 0x8, addend: 0x0, symName: __ZNSt3__13minB8ue170006ImEERKT_S3_S3_, symObjAddr: 0x2158, symBinAddr: 0x1000040F0, symSize: 0x2C }
  - { offsetInCU: 0x71B6, offset: 0x71B6, size: 0x8, addend: 0x0, symName: __ZNSt3__13minB8ue170006ImNS_6__lessIvvEEEERKT_S5_S5_T0_, symObjAddr: 0x21E4, symBinAddr: 0x10000417C, symSize: 0x54 }
  - { offsetInCU: 0x7255, offset: 0x7255, size: 0x8, addend: 0x0, symName: __ZNSt3__120__throw_length_errorB8ue170006EPKc, symObjAddr: 0x22C4, symBinAddr: 0x10000425C, symSize: 0x64 }
  - { offsetInCU: 0x727F, offset: 0x727F, size: 0x8, addend: 0x0, symName: __ZNSt3__13maxB8ue170006ImNS_6__lessIvvEEEERKT_S5_S5_T0_, symObjAddr: 0x23A8, symBinAddr: 0x100004340, symSize: 0x54 }
  - { offsetInCU: 0x72D9, offset: 0x72D9, size: 0x8, addend: 0x0, symName: __ZNSt3__119__allocate_at_leastB8ue170006INS_9allocatorIN9HashTableINS_12basic_stringIcNS_11char_traitsIcEENS1_IcEEEEiNS_4hashIS7_EEE6BucketEEEEENS_19__allocation_resultINS_16allocator_traitsIT_E7pointerEEERSF_m, symObjAddr: 0x2518, symBinAddr: 0x1000044B0, symSize: 0x40 }
  - { offsetInCU: 0x731C, offset: 0x731C, size: 0x8, addend: 0x0, symName: __ZNSt3__117__libcpp_allocateB8ue170006Emm, symObjAddr: 0x26A0, symBinAddr: 0x100004638, symSize: 0x60 }
  - { offsetInCU: 0x7376, offset: 0x7376, size: 0x8, addend: 0x0, symName: __ZNSt3__121__libcpp_operator_newB8ue170006IJmSt11align_val_tEEEPvDpT_, symObjAddr: 0x2700, symBinAddr: 0x100004698, symSize: 0x2C }
  - { offsetInCU: 0x73C3, offset: 0x73C3, size: 0x8, addend: 0x0, symName: __ZNSt3__121__libcpp_operator_newB8ue170006IJmEEEPvDpT_, symObjAddr: 0x272C, symBinAddr: 0x1000046C4, symSize: 0x24 }
  - { offsetInCU: 0x73FC, offset: 0x73FC, size: 0x8, addend: 0x0, symName: __ZNSt3__142__uninitialized_allocator_move_if_noexceptB8ue170006INS_9allocatorIN9HashTableINS_12basic_stringIcNS_11char_traitsIcEENS1_IcEEEEiNS_4hashIS7_EEE6BucketEEENS_16reverse_iteratorIPSB_EESF_SF_EET2_RT_T0_T1_SG_, symObjAddr: 0x2888, symBinAddr: 0x100004820, symSize: 0x12C }
  - { offsetInCU: 0x749C, offset: 0x749C, size: 0x8, addend: 0x0, symName: __ZNSt3__14swapB8ue170006IPN9HashTableINS_12basic_stringIcNS_11char_traitsIcEENS_9allocatorIcEEEEiNS_4hashIS7_EEE6BucketEEENS_9enable_ifIXaasr21is_move_constructibleIT_EE5valuesr18is_move_assignableISE_EE5valueEvE4typeERSE_SH_, symObjAddr: 0x2A00, symBinAddr: 0x100004998, symSize: 0x3C }
  - { offsetInCU: 0x74ED, offset: 0x74ED, size: 0x8, addend: 0x0, symName: __ZNSt3__122__make_exception_guardB8ue170006INS_29_AllocatorDestroyRangeReverseINS_9allocatorIN9HashTableINS_12basic_stringIcNS_11char_traitsIcEENS2_IcEEEEiNS_4hashIS8_EEE6BucketEEENS_16reverse_iteratorIPSC_EEEEEENS_28__exception_guard_exceptionsIT_EESJ_, symObjAddr: 0x2B04, symBinAddr: 0x100004A9C, symSize: 0x4C }
  - { offsetInCU: 0x7523, offset: 0x7523, size: 0x8, addend: 0x0, symName: __ZNSt3__1neB8ue170006IPN9HashTableINS_12basic_stringIcNS_11char_traitsIcEENS_9allocatorIcEEEEiNS_4hashIS7_EEE6BucketESC_EEbRKNS_16reverse_iteratorIT_EERKNSD_IT0_EE, symObjAddr: 0x2B94, symBinAddr: 0x100004B2C, symSize: 0x48 }
  - { offsetInCU: 0x756F, offset: 0x756F, size: 0x8, addend: 0x0, symName: __ZNSt3__112__to_addressB8ue170006INS_16reverse_iteratorIPN9HashTableINS_12basic_stringIcNS_11char_traitsIcEENS_9allocatorIcEEEEiNS_4hashIS8_EEE6BucketEEEvEEu7__decayIDTclsr19__to_address_helperIT_EE6__callclsr3stdE7declvalIRKSF_EEEEESH_, symObjAddr: 0x2C10, symBinAddr: 0x100004BA8, symSize: 0x24 }
  - { offsetInCU: 0x75CE, offset: 0x75CE, size: 0x8, addend: 0x0, symName: __ZNSt3__119__allocator_destroyB8ue170006INS_9allocatorIN9HashTableINS_12basic_stringIcNS_11char_traitsIcEENS1_IcEEEEiNS_4hashIS7_EEE6BucketEEENS_16reverse_iteratorINSD_IPSB_EEEESG_EEvRT_T0_T1_, symObjAddr: 0x2FF4, symBinAddr: 0x100004F8C, symSize: 0x70 }
  - { offsetInCU: 0x7633, offset: 0x7633, size: 0x8, addend: 0x0, symName: __ZNSt3__1neB8ue170006INS_16reverse_iteratorIPN9HashTableINS_12basic_stringIcNS_11char_traitsIcEENS_9allocatorIcEEEEiNS_4hashIS8_EEE6BucketEEESE_EEbRKNS1_IT_EERKNS1_IT0_EE, symObjAddr: 0x30A0, symBinAddr: 0x100005038, symSize: 0x60 }
  - { offsetInCU: 0x767F, offset: 0x767F, size: 0x8, addend: 0x0, symName: __ZNSt3__112__to_addressB8ue170006INS_16reverse_iteratorINS1_IPN9HashTableINS_12basic_stringIcNS_11char_traitsIcEENS_9allocatorIcEEEEiNS_4hashIS8_EEE6BucketEEEEEvEEu7__decayIDTclsr19__to_address_helperIT_EE6__callclsr3stdE7declvalIRKSG_EEEEESI_, symObjAddr: 0x3100, symBinAddr: 0x100005098, symSize: 0x24 }
  - { offsetInCU: 0x76DE, offset: 0x76DE, size: 0x8, addend: 0x0, symName: __ZNSt3__1eqB8ue170006INS_9allocatorIcEEEEbRKNS_12basic_stringIcNS_11char_traitsIcEET_EES9_, symObjAddr: 0x3754, symBinAddr: 0x1000056EC, symSize: 0x148 }
  - { offsetInCU: 0x7751, offset: 0x7751, size: 0x8, addend: 0x0, symName: __ZNSt3__1neB8ue170006IPN9HashTableINS_12basic_stringIcNS_11char_traitsIcEENS_9allocatorIcEEEEiNS_4hashIS7_EEE6BucketEEEbRKNS_11__wrap_iterIT_EESH_, symObjAddr: 0x3930, symBinAddr: 0x1000058C8, symSize: 0x34 }
  - { offsetInCU: 0x7794, offset: 0x7794, size: 0x8, addend: 0x0, symName: __ZNSt3__122__make_exception_guardB8ue170006INS_6vectorIN9HashTableINS_12basic_stringIcNS_11char_traitsIcEENS_9allocatorIcEEEEiNS_4hashIS8_EEE6BucketENS6_ISC_EEE16__destroy_vectorEEENS_28__exception_guard_exceptionsIT_EESH_, symObjAddr: 0x3B48, symBinAddr: 0x100005AE0, symSize: 0x40 }
  - { offsetInCU: 0x77C9, offset: 0x77C9, size: 0x8, addend: 0x0, symName: __ZNSt3__1eqB8ue170006IPN9HashTableINS_12basic_stringIcNS_11char_traitsIcEENS_9allocatorIcEEEEiNS_4hashIS7_EEE6BucketEEEbRKNS_11__wrap_iterIT_EESH_, symObjAddr: 0x3DA8, symBinAddr: 0x100005D40, symSize: 0x48 }
  - { offsetInCU: 0x780C, offset: 0x780C, size: 0x8, addend: 0x0, symName: __ZNSt3__116__swap_allocatorB8ue170006INS_9allocatorIN9HashTableINS_12basic_stringIcNS_11char_traitsIcEENS1_IcEEEEiNS_4hashIS7_EEE6BucketEEEEEvRT_SE_NS_17integral_constantIbLb0EEE, symObjAddr: 0x3E08, symBinAddr: 0x100005DA0, symSize: 0x14 }
  - { offsetInCU: 0x784D, offset: 0x784D, size: 0x8, addend: 0x0, symName: __ZNSt3__116__do_string_hashB8ue170006IPKcEEmT_S3_, symObjAddr: 0x3E1C, symBinAddr: 0x100005DB4, symSize: 0x3C }
  - { offsetInCU: 0x7893, offset: 0x7893, size: 0x8, addend: 0x0, symName: __ZNSt3__110__loadwordB8ue170006ImEET_PKv, symObjAddr: 0x488C, symBinAddr: 0x100006824, symSize: 0x20 }
  - { offsetInCU: 0x78D6, offset: 0x78D6, size: 0x8, addend: 0x0, symName: __ZNSt3__14swapB8ue170006ImEENS_9enable_ifIXaasr21is_move_constructibleIT_EE5valuesr18is_move_assignableIS2_EE5valueEvE4typeERS2_S5_, symObjAddr: 0x4A48, symBinAddr: 0x1000069E0, symSize: 0x3C }
  - { offsetInCU: 0x7927, offset: 0x7927, size: 0x8, addend: 0x0, symName: __ZNSt3__110__loadwordB8ue170006IjEET_PKv, symObjAddr: 0x4AD8, symBinAddr: 0x100006A70, symSize: 0x20 }
  - { offsetInCU: 0x796A, offset: 0x796A, size: 0x8, addend: 0x0, symName: __ZNSt3__112__to_addressB8ue170006IKcEEPT_S3_, symObjAddr: 0x4C40, symBinAddr: 0x100006BD8, symSize: 0x14 }
  - { offsetInCU: 0x79D2, offset: 0x79D2, size: 0x8, addend: 0x0, symName: __ZNSt3__118__constexpr_strlenB8ue170006EPKc, symObjAddr: 0x4E98, symBinAddr: 0x100006E30, symSize: 0x24 }
  - { offsetInCU: 0x79FE, offset: 0x79FE, size: 0x8, addend: 0x0, symName: __ZNSt3__116__pad_and_outputB8ue170006IcNS_11char_traitsIcEEEENS_19ostreambuf_iteratorIT_T0_EES6_PKS4_S8_S8_RNS_8ios_baseES4_, symObjAddr: 0x50C4, symBinAddr: 0x10000705C, symSize: 0x240 }
  - { offsetInCU: 0x7ACD, offset: 0x7ACD, size: 0x8, addend: 0x0, symName: __ZNSt3__112__to_addressB8ue170006IcEEPT_S2_, symObjAddr: 0x5534, symBinAddr: 0x1000074CC, symSize: 0x14 }
  - { offsetInCU: 0x7B35, offset: 0x7B35, size: 0x8, addend: 0x0, symName: __ZNSt3__19use_facetB8ue170006INS_5ctypeIcEEEERKT_RKNS_6localeE, symObjAddr: 0x5744, symBinAddr: 0x1000076DC, symSize: 0x2C }
  - { offsetInCU: 0x82FE, offset: 0x82FE, size: 0x8, addend: 0x0, symName: __ZSt28__throw_bad_array_new_lengthB8ue170006v, symObjAddr: 0x266C, symBinAddr: 0x100004604, symSize: 0x34 }
  - { offsetInCU: 0x892C, offset: 0x892C, size: 0x8, addend: 0x0, symName: __ZNSt3__16vectorIN9HashTableINS_12basic_stringIcNS_11char_traitsIcEENS_9allocatorIcEEEEiNS_4hashIS7_EEE6BucketENS5_ISB_EEE26__swap_out_circular_bufferERNS_14__split_bufferISB_RSC_EE, symObjAddr: 0x1BBC, symBinAddr: 0x100003B54, symSize: 0x110 }
  - { offsetInCU: 0xAE6B, offset: 0xAE6B, size: 0x8, addend: 0x0, symName: _main, symObjAddr: 0x0, symBinAddr: 0x100001F98, symSize: 0x520 }
  - { offsetInCU: 0xAE94, offset: 0xAE94, size: 0x8, addend: 0x0, symName: __ZN9HashTableINSt3__112basic_stringIcNS0_11char_traitsIcEENS0_9allocatorIcEEEEiNS0_4hashIS6_EEEC1Ev, symObjAddr: 0x520, symBinAddr: 0x1000024B8, symSize: 0x2C }
  - { offsetInCU: 0xAEBE, offset: 0xAEBE, size: 0x8, addend: 0x0, symName: __ZN9HashTableINSt3__112basic_stringIcNS0_11char_traitsIcEENS0_9allocatorIcEEEEiNS0_4hashIS6_EEE6insertERKS6_RKi, symObjAddr: 0x594, symBinAddr: 0x10000252C, symSize: 0x2FC }
  - { offsetInCU: 0xAF77, offset: 0xAF77, size: 0x8, addend: 0x0, symName: __ZNSt3__112basic_stringIcNS_11char_traitsIcEENS_9allocatorIcEEEC1B8ue170006ILi0EEEPKc, symObjAddr: 0x890, symBinAddr: 0x100002828, symSize: 0x34 }
  - { offsetInCU: 0xAFB6, offset: 0xAFB6, size: 0x8, addend: 0x0, symName: __ZN9HashTableINSt3__112basic_stringIcNS0_11char_traitsIcEENS0_9allocatorIcEEEEiNS0_4hashIS6_EEEixERKS6_, symObjAddr: 0x8C4, symBinAddr: 0x10000285C, symSize: 0x3F8 }
  - { offsetInCU: 0xB030, offset: 0xB030, size: 0x8, addend: 0x0, symName: __ZN9HashTableINSt3__112basic_stringIcNS0_11char_traitsIcEENS0_9allocatorIcEEEEiNS0_4hashIS6_EEE5eraseERKS6_, symObjAddr: 0xCBC, symBinAddr: 0x100002C54, symSize: 0x164 }
  - { offsetInCU: 0xB08E, offset: 0xB08E, size: 0x8, addend: 0x0, symName: __ZN9HashTableINSt3__112basic_stringIcNS0_11char_traitsIcEENS0_9allocatorIcEEEEiNS0_4hashIS6_EEED1Ev, symObjAddr: 0xE20, symBinAddr: 0x100002DB8, symSize: 0x2C }
  - { offsetInCU: 0xB0BA, offset: 0xB0BA, size: 0x8, addend: 0x0, symName: __ZN9HashTableINSt3__112basic_stringIcNS0_11char_traitsIcEENS0_9allocatorIcEEEEiNS0_4hashIS6_EEED2Ev, symObjAddr: 0xE4C, symBinAddr: 0x100002DE4, symSize: 0x30 }
  - { offsetInCU: 0xB0E6, offset: 0xB0E6, size: 0x8, addend: 0x0, symName: __ZNSt3__16vectorIN9HashTableINS_12basic_stringIcNS_11char_traitsIcEENS_9allocatorIcEEEEiNS_4hashIS7_EEE6BucketENS5_ISB_EEED1B8ue170006Ev, symObjAddr: 0xE7C, symBinAddr: 0x100002E14, symSize: 0x2C }
  - { offsetInCU: 0xB110, offset: 0xB110, size: 0x8, addend: 0x0, symName: __ZNSt3__16vectorIN9HashTableINS_12basic_stringIcNS_11char_traitsIcEENS_9allocatorIcEEEEiNS_4hashIS7_EEE6BucketENS5_ISB_EEED2B8ue170006Ev, symObjAddr: 0xEA8, symBinAddr: 0x100002E40, symSize: 0x44 }
  - { offsetInCU: 0xB13A, offset: 0xB13A, size: 0x8, addend: 0x0, symName: __ZNSt3__16vectorIN9HashTableINS_12basic_stringIcNS_11char_traitsIcEENS_9allocatorIcEEEEiNS_4hashIS7_EEE6BucketENS5_ISB_EEE16__destroy_vectorC1B8ue170006ERSD_, symObjAddr: 0xEEC, symBinAddr: 0x100002E84, symSize: 0x34 }
  - { offsetInCU: 0xB173, offset: 0xB173, size: 0x8, addend: 0x0, symName: __ZNSt3__16vectorIN9HashTableINS_12basic_stringIcNS_11char_traitsIcEENS_9allocatorIcEEEEiNS_4hashIS7_EEE6BucketENS5_ISB_EEE16__destroy_vectorclB8ue170006Ev, symObjAddr: 0xF2C, symBinAddr: 0x100002EC4, symSize: 0x90 }
  - { offsetInCU: 0xB199, offset: 0xB199, size: 0x8, addend: 0x0, symName: __ZNSt3__16vectorIN9HashTableINS_12basic_stringIcNS_11char_traitsIcEENS_9allocatorIcEEEEiNS_4hashIS7_EEE6BucketENS5_ISB_EEE16__destroy_vectorC2B8ue170006ERSD_, symObjAddr: 0xFBC, symBinAddr: 0x100002F54, symSize: 0x20 }
  - { offsetInCU: 0xB1D2, offset: 0xB1D2, size: 0x8, addend: 0x0, symName: __ZNSt3__16vectorIN9HashTableINS_12basic_stringIcNS_11char_traitsIcEENS_9allocatorIcEEEEiNS_4hashIS7_EEE6BucketENS5_ISB_EEE7__clearB8ue170006Ev, symObjAddr: 0xFDC, symBinAddr: 0x100002F74, symSize: 0x28 }
  - { offsetInCU: 0xB1F8, offset: 0xB1F8, size: 0x8, addend: 0x0, symName: __ZNKSt3__16vectorIN9HashTableINS_12basic_stringIcNS_11char_traitsIcEENS_9allocatorIcEEEEiNS_4hashIS7_EEE6BucketENS5_ISB_EEE17__annotate_deleteB8ue170006Ev, symObjAddr: 0x1004, symBinAddr: 0x100002F9C, symSize: 0xD4 }
  - { offsetInCU: 0xB21E, offset: 0xB21E, size: 0x8, addend: 0x0, symName: __ZNSt3__116allocator_traitsINS_9allocatorIN9HashTableINS_12basic_stringIcNS_11char_traitsIcEENS1_IcEEEEiNS_4hashIS7_EEE6BucketEEEE10deallocateB8ue170006ERSC_PSB_m, symObjAddr: 0x10D8, symBinAddr: 0x100003070, symSize: 0x34 }
  - { offsetInCU: 0xB260, offset: 0xB260, size: 0x8, addend: 0x0, symName: __ZNSt3__16vectorIN9HashTableINS_12basic_stringIcNS_11char_traitsIcEENS_9allocatorIcEEEEiNS_4hashIS7_EEE6BucketENS5_ISB_EEE7__allocB8ue170006Ev, symObjAddr: 0x110C, symBinAddr: 0x1000030A4, symSize: 0x28 }
  - { offsetInCU: 0xB286, offset: 0xB286, size: 0x8, addend: 0x0, symName: __ZNKSt3__16vectorIN9HashTableINS_12basic_stringIcNS_11char_traitsIcEENS_9allocatorIcEEEEiNS_4hashIS7_EEE6BucketENS5_ISB_EEE8capacityB8ue170006Ev, symObjAddr: 0x1134, symBinAddr: 0x1000030CC, symSize: 0x40 }
  - { offsetInCU: 0xB2AC, offset: 0xB2AC, size: 0x8, addend: 0x0, symName: __ZNSt3__16vectorIN9HashTableINS_12basic_stringIcNS_11char_traitsIcEENS_9allocatorIcEEEEiNS_4hashIS7_EEE6BucketENS5_ISB_EEE22__base_destruct_at_endB8ue170006EPSB_, symObjAddr: 0x1174, symBinAddr: 0x10000310C, symSize: 0x8C }
  - { offsetInCU: 0xB2F0, offset: 0xB2F0, size: 0x8, addend: 0x0, symName: __ZNSt3__116allocator_traitsINS_9allocatorIN9HashTableINS_12basic_stringIcNS_11char_traitsIcEENS1_IcEEEEiNS_4hashIS7_EEE6BucketEEEE7destroyB8ue170006ISB_vEEvRSC_PT_, symObjAddr: 0x1200, symBinAddr: 0x100003198, symSize: 0x2C }
  - { offsetInCU: 0xB32D, offset: 0xB32D, size: 0x8, addend: 0x0, symName: __ZNSt3__19allocatorIN9HashTableINS_12basic_stringIcNS_11char_traitsIcEENS0_IcEEEEiNS_4hashIS6_EEE6BucketEE7destroyB8ue170006EPSA_, symObjAddr: 0x1240, symBinAddr: 0x1000031D8, symSize: 0x28 }
  - { offsetInCU: 0xB366, offset: 0xB366, size: 0x8, addend: 0x0, symName: __ZN9HashTableINSt3__112basic_stringIcNS0_11char_traitsIcEENS0_9allocatorIcEEEEiNS0_4hashIS6_EEE6BucketD1Ev, symObjAddr: 0x1268, symBinAddr: 0x100003200, symSize: 0x2C }
  - { offsetInCU: 0xB392, offset: 0xB392, size: 0x8, addend: 0x0, symName: __ZN9HashTableINSt3__112basic_stringIcNS0_11char_traitsIcEENS0_9allocatorIcEEEEiNS0_4hashIS6_EEE6BucketD2Ev, symObjAddr: 0x1294, symBinAddr: 0x10000322C, symSize: 0x30 }
  - { offsetInCU: 0xB3BE, offset: 0xB3BE, size: 0x8, addend: 0x0, symName: __ZNKSt3__16vectorIN9HashTableINS_12basic_stringIcNS_11char_traitsIcEENS_9allocatorIcEEEEiNS_4hashIS7_EEE6BucketENS5_ISB_EEE31__annotate_contiguous_containerB8ue170006EPKvSF_SF_SF_, symObjAddr: 0x12C4, symBinAddr: 0x10000325C, symSize: 0x20 }
  - { offsetInCU: 0xB414, offset: 0xB414, size: 0x8, addend: 0x0, symName: __ZNKSt3__16vectorIN9HashTableINS_12basic_stringIcNS_11char_traitsIcEENS_9allocatorIcEEEEiNS_4hashIS7_EEE6BucketENS5_ISB_EEE4dataB8ue170006Ev, symObjAddr: 0x12E4, symBinAddr: 0x10000327C, symSize: 0x28 }
  - { offsetInCU: 0xB43A, offset: 0xB43A, size: 0x8, addend: 0x0, symName: __ZNKSt3__16vectorIN9HashTableINS_12basic_stringIcNS_11char_traitsIcEENS_9allocatorIcEEEEiNS_4hashIS7_EEE6BucketENS5_ISB_EEE4sizeB8ue170006Ev, symObjAddr: 0x130C, symBinAddr: 0x1000032A4, symSize: 0x28 }
  - { offsetInCU: 0xB460, offset: 0xB460, size: 0x8, addend: 0x0, symName: __ZNSt3__19allocatorIN9HashTableINS_12basic_stringIcNS_11char_traitsIcEENS0_IcEEEEiNS_4hashIS6_EEE6BucketEE10deallocateB8ue170006EPSA_m, symObjAddr: 0x1334, symBinAddr: 0x1000032CC, symSize: 0x44 }
  - { offsetInCU: 0xB4A2, offset: 0xB4A2, size: 0x8, addend: 0x0, symName: __ZNSt3__117__compressed_pairIPN9HashTableINS_12basic_stringIcNS_11char_traitsIcEENS_9allocatorIcEEEEiNS_4hashIS7_EEE6BucketENS5_ISB_EEE6secondB8ue170006Ev, symObjAddr: 0x14A0, symBinAddr: 0x100003438, symSize: 0x24 }
  - { offsetInCU: 0xB4C8, offset: 0xB4C8, size: 0x8, addend: 0x0, symName: __ZNSt3__122__compressed_pair_elemINS_9allocatorIN9HashTableINS_12basic_stringIcNS_11char_traitsIcEENS1_IcEEEEiNS_4hashIS7_EEE6BucketEEELi1ELb1EE5__getB8ue170006Ev, symObjAddr: 0x14C4, symBinAddr: 0x10000345C, symSize: 0x14 }
  - { offsetInCU: 0xB4EE, offset: 0xB4EE, size: 0x8, addend: 0x0, symName: __ZNKSt3__16vectorIN9HashTableINS_12basic_stringIcNS_11char_traitsIcEENS_9allocatorIcEEEEiNS_4hashIS7_EEE6BucketENS5_ISB_EEE9__end_capB8ue170006Ev, symObjAddr: 0x14D8, symBinAddr: 0x100003470, symSize: 0x28 }
  - { offsetInCU: 0xB514, offset: 0xB514, size: 0x8, addend: 0x0, symName: __ZNKSt3__117__compressed_pairIPN9HashTableINS_12basic_stringIcNS_11char_traitsIcEENS_9allocatorIcEEEEiNS_4hashIS7_EEE6BucketENS5_ISB_EEE5firstB8ue170006Ev, symObjAddr: 0x1500, symBinAddr: 0x100003498, symSize: 0x24 }
  - { offsetInCU: 0xB53A, offset: 0xB53A, size: 0x8, addend: 0x0, symName: __ZNKSt3__122__compressed_pair_elemIPN9HashTableINS_12basic_stringIcNS_11char_traitsIcEENS_9allocatorIcEEEEiNS_4hashIS7_EEE6BucketELi0ELb0EE5__getB8ue170006Ev, symObjAddr: 0x1524, symBinAddr: 0x1000034BC, symSize: 0x14 }
  - { offsetInCU: 0xB560, offset: 0xB560, size: 0x8, addend: 0x0, symName: __ZN9HashTableINSt3__112basic_stringIcNS0_11char_traitsIcEENS0_9allocatorIcEEEEiNS0_4hashIS6_EEEC2Ev, symObjAddr: 0x1538, symBinAddr: 0x1000034D0, symSize: 0x7C }
  - { offsetInCU: 0xB58A, offset: 0xB58A, size: 0x8, addend: 0x0, symName: __ZNSt3__16vectorIN9HashTableINS_12basic_stringIcNS_11char_traitsIcEENS_9allocatorIcEEEEiNS_4hashIS7_EEE6BucketENS5_ISB_EEEC1B8ue170006Ev, symObjAddr: 0x15B4, symBinAddr: 0x10000354C, symSize: 0x2C }
  - { offsetInCU: 0xB5B4, offset: 0xB5B4, size: 0x8, addend: 0x0, symName: __ZNSt3__16vectorIN9HashTableINS_12basic_stringIcNS_11char_traitsIcEENS_9allocatorIcEEEEiNS_4hashIS7_EEE6BucketENS5_ISB_EEE6resizeEm, symObjAddr: 0x15E0, symBinAddr: 0x100003578, symSize: 0x9C }
  - { offsetInCU: 0xB5FA, offset: 0xB5FA, size: 0x8, addend: 0x0, symName: __ZNSt3__16vectorIN9HashTableINS_12basic_stringIcNS_11char_traitsIcEENS_9allocatorIcEEEEiNS_4hashIS7_EEE6BucketENS5_ISB_EEEC2B8ue170006Ev, symObjAddr: 0x167C, symBinAddr: 0x100003614, symSize: 0x4C }
  - { offsetInCU: 0xB62E, offset: 0xB62E, size: 0x8, addend: 0x0, symName: __ZNSt3__117__compressed_pairIPN9HashTableINS_12basic_stringIcNS_11char_traitsIcEENS_9allocatorIcEEEEiNS_4hashIS7_EEE6BucketENS5_ISB_EEEC1B8ue170006IDnNS_18__default_init_tagEEEOT_OT0_, symObjAddr: 0x16C8, symBinAddr: 0x100003660, symSize: 0x3C }
  - { offsetInCU: 0xB686, offset: 0xB686, size: 0x8, addend: 0x0, symName: __ZNSt3__117__compressed_pairIPN9HashTableINS_12basic_stringIcNS_11char_traitsIcEENS_9allocatorIcEEEEiNS_4hashIS7_EEE6BucketENS5_ISB_EEEC2B8ue170006IDnNS_18__default_init_tagEEEOT_OT0_, symObjAddr: 0x1704, symBinAddr: 0x10000369C, symSize: 0x40 }
  - { offsetInCU: 0xB6DE, offset: 0xB6DE, size: 0x8, addend: 0x0, symName: __ZNSt3__122__compressed_pair_elemIPN9HashTableINS_12basic_stringIcNS_11char_traitsIcEENS_9allocatorIcEEEEiNS_4hashIS7_EEE6BucketELi0ELb0EEC2B8ue170006IDnvEEOT_, symObjAddr: 0x1744, symBinAddr: 0x1000036DC, symSize: 0x1C }
  - { offsetInCU: 0xB720, offset: 0xB720, size: 0x8, addend: 0x0, symName: __ZNSt3__122__compressed_pair_elemINS_9allocatorIN9HashTableINS_12basic_stringIcNS_11char_traitsIcEENS1_IcEEEEiNS_4hashIS7_EEE6BucketEEELi1ELb1EEC2B8ue170006ENS_18__default_init_tagE, symObjAddr: 0x1760, symBinAddr: 0x1000036F8, symSize: 0x2C }
  - { offsetInCU: 0xB754, offset: 0xB754, size: 0x8, addend: 0x0, symName: __ZNSt3__19allocatorIN9HashTableINS_12basic_stringIcNS_11char_traitsIcEENS0_IcEEEEiNS_4hashIS6_EEE6BucketEEC2B8ue170006Ev, symObjAddr: 0x178C, symBinAddr: 0x100003724, symSize: 0x2C }
  - { offsetInCU: 0xB77E, offset: 0xB77E, size: 0x8, addend: 0x0, symName: __ZNSt3__116__non_trivial_ifILb1ENS_9allocatorIN9HashTableINS_12basic_stringIcNS_11char_traitsIcEENS1_IcEEEEiNS_4hashIS7_EEE6BucketEEEEC2B8ue170006Ev, symObjAddr: 0x17B8, symBinAddr: 0x100003750, symSize: 0x14 }
  - { offsetInCU: 0xB7A8, offset: 0xB7A8, size: 0x8, addend: 0x0, symName: __ZNSt3__16vectorIN9HashTableINS_12basic_stringIcNS_11char_traitsIcEENS_9allocatorIcEEEEiNS_4hashIS7_EEE6BucketENS5_ISB_EEE8__appendEm, symObjAddr: 0x17CC, symBinAddr: 0x100003764, symSize: 0x108 }
  - { offsetInCU: 0xB803, offset: 0xB803, size: 0x8, addend: 0x0, symName: __ZNSt3__16vectorIN9HashTableINS_12basic_stringIcNS_11char_traitsIcEENS_9allocatorIcEEEEiNS_4hashIS7_EEE6BucketENS5_ISB_EEE17__destruct_at_endB8ue170006EPSB_, symObjAddr: 0x18D4, symBinAddr: 0x10000386C, symSize: 0x4C }
  - { offsetInCU: 0xB847, offset: 0xB847, size: 0x8, addend: 0x0, symName: __ZNSt3__16vectorIN9HashTableINS_12basic_stringIcNS_11char_traitsIcEENS_9allocatorIcEEEEiNS_4hashIS7_EEE6BucketENS5_ISB_EEE9__end_capB8ue170006Ev, symObjAddr: 0x1920, symBinAddr: 0x1000038B8, symSize: 0x28 }
  - { offsetInCU: 0xB86D, offset: 0xB86D, size: 0x8, addend: 0x0, symName: __ZNSt3__16vectorIN9HashTableINS_12basic_stringIcNS_11char_traitsIcEENS_9allocatorIcEEEEiNS_4hashIS7_EEE6BucketENS5_ISB_EEE18__construct_at_endEm, symObjAddr: 0x1948, symBinAddr: 0x1000038E0, symSize: 0xC8 }
  - { offsetInCU: 0xB8DF, offset: 0xB8DF, size: 0x8, addend: 0x0, symName: __ZNKSt3__16vectorIN9HashTableINS_12basic_stringIcNS_11char_traitsIcEENS_9allocatorIcEEEEiNS_4hashIS7_EEE6BucketENS5_ISB_EEE11__recommendB8ue170006Em, symObjAddr: 0x1A10, symBinAddr: 0x1000039A8, symSize: 0xB4 }
  - { offsetInCU: 0xB934, offset: 0xB934, size: 0x8, addend: 0x0, symName: __ZNSt3__114__split_bufferIN9HashTableINS_12basic_stringIcNS_11char_traitsIcEENS_9allocatorIcEEEEiNS_4hashIS7_EEE6BucketERNS5_ISB_EEEC1EmmSD_, symObjAddr: 0x1AC4, symBinAddr: 0x100003A5C, symSize: 0x44 }
  - { offsetInCU: 0xB98A, offset: 0xB98A, size: 0x8, addend: 0x0, symName: __ZNSt3__114__split_bufferIN9HashTableINS_12basic_stringIcNS_11char_traitsIcEENS_9allocatorIcEEEEiNS_4hashIS7_EEE6BucketERNS5_ISB_EEE18__construct_at_endEm, symObjAddr: 0x1B08, symBinAddr: 0x100003AA0, symSize: 0xB4 }
  - { offsetInCU: 0xB9CF, offset: 0xB9CF, size: 0x8, addend: 0x0, symName: __ZNSt3__114__split_bufferIN9HashTableINS_12basic_stringIcNS_11char_traitsIcEENS_9allocatorIcEEEEiNS_4hashIS7_EEE6BucketERNS5_ISB_EEED1Ev, symObjAddr: 0x1CCC, symBinAddr: 0x100003C64, symSize: 0x2C }
  - { offsetInCU: 0xB9FB, offset: 0xB9FB, size: 0x8, addend: 0x0, symName: __ZNSt3__117__compressed_pairIPN9HashTableINS_12basic_stringIcNS_11char_traitsIcEENS_9allocatorIcEEEEiNS_4hashIS7_EEE6BucketENS5_ISB_EEE5firstB8ue170006Ev, symObjAddr: 0x1CF8, symBinAddr: 0x100003C90, symSize: 0x24 }
  - { offsetInCU: 0xBA21, offset: 0xBA21, size: 0x8, addend: 0x0, symName: __ZNSt3__122__compressed_pair_elemIPN9HashTableINS_12basic_stringIcNS_11char_traitsIcEENS_9allocatorIcEEEEiNS_4hashIS7_EEE6BucketELi0ELb0EE5__getB8ue170006Ev, symObjAddr: 0x1D1C, symBinAddr: 0x100003CB4, symSize: 0x14 }
  - { offsetInCU: 0xBA60, offset: 0xBA60, size: 0x8, addend: 0x0, symName: __ZNSt3__16vectorIN9HashTableINS_12basic_stringIcNS_11char_traitsIcEENS_9allocatorIcEEEEiNS_4hashIS7_EEE6BucketENS5_ISB_EEE21_ConstructTransactionC1B8ue170006ERSD_m, symObjAddr: 0x1D30, symBinAddr: 0x100003CC8, symSize: 0x3C }
  - { offsetInCU: 0xBAA8, offset: 0xBAA8, size: 0x8, addend: 0x0, symName: __ZNSt3__116allocator_traitsINS_9allocatorIN9HashTableINS_12basic_stringIcNS_11char_traitsIcEENS1_IcEEEEiNS_4hashIS7_EEE6BucketEEEE9constructB8ue170006ISB_JEvEEvRSC_PT_DpOT0_, symObjAddr: 0x1D6C, symBinAddr: 0x100003D04, symSize: 0x2C }
  - { offsetInCU: 0xBAEA, offset: 0xBAEA, size: 0x8, addend: 0x0, symName: __ZNSt3__16vectorIN9HashTableINS_12basic_stringIcNS_11char_traitsIcEENS_9allocatorIcEEEEiNS_4hashIS7_EEE6BucketENS5_ISB_EEE21_ConstructTransactionD1B8ue170006Ev, symObjAddr: 0x1D98, symBinAddr: 0x100003D30, symSize: 0x2C }
  - { offsetInCU: 0xBB14, offset: 0xBB14, size: 0x8, addend: 0x0, symName: __ZNSt3__16vectorIN9HashTableINS_12basic_stringIcNS_11char_traitsIcEENS_9allocatorIcEEEEiNS_4hashIS7_EEE6BucketENS5_ISB_EEE21_ConstructTransactionC2B8ue170006ERSD_m, symObjAddr: 0x1DC4, symBinAddr: 0x100003D5C, symSize: 0x4C }
  - { offsetInCU: 0xBB5C, offset: 0xBB5C, size: 0x8, addend: 0x0, symName: __ZNSt3__19allocatorIN9HashTableINS_12basic_stringIcNS_11char_traitsIcEENS0_IcEEEEiNS_4hashIS6_EEE6BucketEE9constructB8ue170006ISA_JEEEvPT_DpOT0_, symObjAddr: 0x1E10, symBinAddr: 0x100003DA8, symSize: 0x3C }
  - { offsetInCU: 0xBB9E, offset: 0xBB9E, size: 0x8, addend: 0x0, symName: __ZN9HashTableINSt3__112basic_stringIcNS0_11char_traitsIcEENS0_9allocatorIcEEEEiNS0_4hashIS6_EEE6BucketC1Ev, symObjAddr: 0x1E4C, symBinAddr: 0x100003DE4, symSize: 0x2C }
  - { offsetInCU: 0xBBCA, offset: 0xBBCA, size: 0x8, addend: 0x0, symName: __ZN9HashTableINSt3__112basic_stringIcNS0_11char_traitsIcEENS0_9allocatorIcEEEEiNS0_4hashIS6_EEE6BucketC2Ev, symObjAddr: 0x1E78, symBinAddr: 0x100003E10, symSize: 0x34 }
  - { offsetInCU: 0xBBF6, offset: 0xBBF6, size: 0x8, addend: 0x0, symName: __ZNSt3__112basic_stringIcNS_11char_traitsIcEENS_9allocatorIcEEEC1B8ue170006Ev, symObjAddr: 0x1EAC, symBinAddr: 0x100003E44, symSize: 0x2C }
  - { offsetInCU: 0xBC20, offset: 0xBC20, size: 0x8, addend: 0x0, symName: __ZNSt3__112basic_stringIcNS_11char_traitsIcEENS_9allocatorIcEEEC2B8ue170006Ev, symObjAddr: 0x1ED8, symBinAddr: 0x100003E70, symSize: 0x48 }
  - { offsetInCU: 0xBC4A, offset: 0xBC4A, size: 0x8, addend: 0x0, symName: __ZNSt3__117__compressed_pairINS_12basic_stringIcNS_11char_traitsIcEENS_9allocatorIcEEE5__repES5_EC1B8ue170006INS_18__default_init_tagESA_EEOT_OT0_, symObjAddr: 0x1F20, symBinAddr: 0x100003EB8, symSize: 0x3C }
  - { offsetInCU: 0xBCA2, offset: 0xBCA2, size: 0x8, addend: 0x0, symName: __ZNSt3__112basic_stringIcNS_11char_traitsIcEENS_9allocatorIcEEE14__default_initB8ue170006Ev, symObjAddr: 0x1F5C, symBinAddr: 0x100003EF4, symSize: 0x40 }
  - { offsetInCU: 0xBCC8, offset: 0xBCC8, size: 0x8, addend: 0x0, symName: __ZNSt3__117__compressed_pairINS_12basic_stringIcNS_11char_traitsIcEENS_9allocatorIcEEE5__repES5_EC2B8ue170006INS_18__default_init_tagESA_EEOT_OT0_, symObjAddr: 0x1F9C, symBinAddr: 0x100003F34, symSize: 0x3C }
  - { offsetInCU: 0xBD20, offset: 0xBD20, size: 0x8, addend: 0x0, symName: __ZNSt3__122__compressed_pair_elemINS_12basic_stringIcNS_11char_traitsIcEENS_9allocatorIcEEE5__repELi0ELb0EEC2B8ue170006ENS_18__default_init_tagE, symObjAddr: 0x1FD8, symBinAddr: 0x100003F70, symSize: 0x14 }
  - { offsetInCU: 0xBD54, offset: 0xBD54, size: 0x8, addend: 0x0, symName: __ZNSt3__122__compressed_pair_elemINS_9allocatorIcEELi1ELb1EEC2B8ue170006ENS_18__default_init_tagE, symObjAddr: 0x1FEC, symBinAddr: 0x100003F84, symSize: 0x2C }
  - { offsetInCU: 0xBD88, offset: 0xBD88, size: 0x8, addend: 0x0, symName: __ZNSt3__19allocatorIcEC2B8ue170006Ev, symObjAddr: 0x2018, symBinAddr: 0x100003FB0, symSize: 0x2C }
  - { offsetInCU: 0xBDB2, offset: 0xBDB2, size: 0x8, addend: 0x0, symName: __ZNSt3__116__non_trivial_ifILb1ENS_9allocatorIcEEEC2B8ue170006Ev, symObjAddr: 0x2044, symBinAddr: 0x100003FDC, symSize: 0x14 }
  - { offsetInCU: 0xBDDC, offset: 0xBDDC, size: 0x8, addend: 0x0, symName: __ZNSt3__117__compressed_pairINS_12basic_stringIcNS_11char_traitsIcEENS_9allocatorIcEEE5__repES5_E5firstB8ue170006Ev, symObjAddr: 0x2058, symBinAddr: 0x100003FF0, symSize: 0x24 }
  - { offsetInCU: 0xBE02, offset: 0xBE02, size: 0x8, addend: 0x0, symName: __ZNSt3__122__compressed_pair_elemINS_12basic_stringIcNS_11char_traitsIcEENS_9allocatorIcEEE5__repELi0ELb0EE5__getB8ue170006Ev, symObjAddr: 0x207C, symBinAddr: 0x100004014, symSize: 0x14 }
  - { offsetInCU: 0xBE28, offset: 0xBE28, size: 0x8, addend: 0x0, symName: __ZNSt3__16vectorIN9HashTableINS_12basic_stringIcNS_11char_traitsIcEENS_9allocatorIcEEEEiNS_4hashIS7_EEE6BucketENS5_ISB_EEE21_ConstructTransactionD2B8ue170006Ev, symObjAddr: 0x2090, symBinAddr: 0x100004028, symSize: 0x20 }
  - { offsetInCU: 0xBE52, offset: 0xBE52, size: 0x8, addend: 0x0, symName: __ZNKSt3__16vectorIN9HashTableINS_12basic_stringIcNS_11char_traitsIcEENS_9allocatorIcEEEEiNS_4hashIS7_EEE6BucketENS5_ISB_EEE8max_sizeEv, symObjAddr: 0x20B0, symBinAddr: 0x100004048, symSize: 0x60 }
  - { offsetInCU: 0xBE7A, offset: 0xBE7A, size: 0x8, addend: 0x0, symName: __ZNKSt3__16vectorIN9HashTableINS_12basic_stringIcNS_11char_traitsIcEENS_9allocatorIcEEEEiNS_4hashIS7_EEE6BucketENS5_ISB_EEE20__throw_length_errorB8ue170006Ev, symObjAddr: 0x2110, symBinAddr: 0x1000040A8, symSize: 0x1C }
  - { offsetInCU: 0xBEAA, offset: 0xBEAA, size: 0x8, addend: 0x0, symName: __ZNSt3__116allocator_traitsINS_9allocatorIN9HashTableINS_12basic_stringIcNS_11char_traitsIcEENS1_IcEEEEiNS_4hashIS7_EEE6BucketEEEE8max_sizeB8ue170006ISC_vEEmRKSC_, symObjAddr: 0x2184, symBinAddr: 0x10000411C, symSize: 0x24 }
  - { offsetInCU: 0xBED8, offset: 0xBED8, size: 0x8, addend: 0x0, symName: __ZNKSt3__16vectorIN9HashTableINS_12basic_stringIcNS_11char_traitsIcEENS_9allocatorIcEEEEiNS_4hashIS7_EEE6BucketENS5_ISB_EEE7__allocB8ue170006Ev, symObjAddr: 0x21A8, symBinAddr: 0x100004140, symSize: 0x28 }
  - { offsetInCU: 0xBEFE, offset: 0xBEFE, size: 0x8, addend: 0x0, symName: __ZNSt3__114numeric_limitsIlE3maxB8ue170006Ev, symObjAddr: 0x21D0, symBinAddr: 0x100004168, symSize: 0x14 }
  - { offsetInCU: 0xBF21, offset: 0xBF21, size: 0x8, addend: 0x0, symName: __ZNKSt3__16__lessIvvEclB8ue170006ImmEEbRKT_RKT0_, symObjAddr: 0x2238, symBinAddr: 0x1000041D0, symSize: 0x34 }
  - { offsetInCU: 0xBF75, offset: 0xBF75, size: 0x8, addend: 0x0, symName: __ZNKSt3__19allocatorIN9HashTableINS_12basic_stringIcNS_11char_traitsIcEENS0_IcEEEEiNS_4hashIS6_EEE6BucketEE8max_sizeB8ue170006Ev, symObjAddr: 0x226C, symBinAddr: 0x100004204, symSize: 0x18 }
  - { offsetInCU: 0xBF9B, offset: 0xBF9B, size: 0x8, addend: 0x0, symName: __ZNKSt3__117__compressed_pairIPN9HashTableINS_12basic_stringIcNS_11char_traitsIcEENS_9allocatorIcEEEEiNS_4hashIS7_EEE6BucketENS5_ISB_EEE6secondB8ue170006Ev, symObjAddr: 0x2284, symBinAddr: 0x10000421C, symSize: 0x24 }
  - { offsetInCU: 0xBFC1, offset: 0xBFC1, size: 0x8, addend: 0x0, symName: __ZNKSt3__122__compressed_pair_elemINS_9allocatorIN9HashTableINS_12basic_stringIcNS_11char_traitsIcEENS1_IcEEEEiNS_4hashIS7_EEE6BucketEEELi1ELb1EE5__getB8ue170006Ev, symObjAddr: 0x22A8, symBinAddr: 0x100004240, symSize: 0x14 }
  - { offsetInCU: 0xBFE7, offset: 0xBFE7, size: 0x8, addend: 0x0, symName: __ZNSt3__123__libcpp_numeric_limitsIlLb1EE3maxB8ue170006Ev, symObjAddr: 0x22BC, symBinAddr: 0x100004254, symSize: 0x8 }
  - { offsetInCU: 0xBFFB, offset: 0xBFFB, size: 0x8, addend: 0x0, symName: __ZNSt12length_errorC1B8ue170006EPKc, symObjAddr: 0x2328, symBinAddr: 0x1000042C0, symSize: 0x34 }
  - { offsetInCU: 0xC033, offset: 0xC033, size: 0x8, addend: 0x0, symName: __ZNSt12length_errorC2B8ue170006EPKc, symObjAddr: 0x235C, symBinAddr: 0x1000042F4, symSize: 0x4C }
  - { offsetInCU: 0xC06B, offset: 0xC06B, size: 0x8, addend: 0x0, symName: __ZNSt3__114__split_bufferIN9HashTableINS_12basic_stringIcNS_11char_traitsIcEENS_9allocatorIcEEEEiNS_4hashIS7_EEE6BucketERNS5_ISB_EEEC2EmmSD_, symObjAddr: 0x23FC, symBinAddr: 0x100004394, symSize: 0xE0 }
  - { offsetInCU: 0xC0DE, offset: 0xC0DE, size: 0x8, addend: 0x0, symName: __ZNSt3__117__compressed_pairIPN9HashTableINS_12basic_stringIcNS_11char_traitsIcEENS_9allocatorIcEEEEiNS_4hashIS7_EEE6BucketERNS5_ISB_EEEC1B8ue170006IDnSE_EEOT_OT0_, symObjAddr: 0x24DC, symBinAddr: 0x100004474, symSize: 0x3C }
  - { offsetInCU: 0xC136, offset: 0xC136, size: 0x8, addend: 0x0, symName: __ZNSt3__114__split_bufferIN9HashTableINS_12basic_stringIcNS_11char_traitsIcEENS_9allocatorIcEEEEiNS_4hashIS7_EEE6BucketERNS5_ISB_EEE7__allocB8ue170006Ev, symObjAddr: 0x2558, symBinAddr: 0x1000044F0, symSize: 0x28 }
  - { offsetInCU: 0xC15C, offset: 0xC15C, size: 0x8, addend: 0x0, symName: __ZNSt3__114__split_bufferIN9HashTableINS_12basic_stringIcNS_11char_traitsIcEENS_9allocatorIcEEEEiNS_4hashIS7_EEE6BucketERNS5_ISB_EEE9__end_capB8ue170006Ev, symObjAddr: 0x2580, symBinAddr: 0x100004518, symSize: 0x28 }
  - { offsetInCU: 0xC182, offset: 0xC182, size: 0x8, addend: 0x0, symName: __ZNSt3__117__compressed_pairIPN9HashTableINS_12basic_stringIcNS_11char_traitsIcEENS_9allocatorIcEEEEiNS_4hashIS7_EEE6BucketERNS5_ISB_EEEC2B8ue170006IDnSE_EEOT_OT0_, symObjAddr: 0x25A8, symBinAddr: 0x100004540, symSize: 0x48 }
  - { offsetInCU: 0xC1DA, offset: 0xC1DA, size: 0x8, addend: 0x0, symName: __ZNSt3__122__compressed_pair_elemIRNS_9allocatorIN9HashTableINS_12basic_stringIcNS_11char_traitsIcEENS1_IcEEEEiNS_4hashIS7_EEE6BucketEEELi1ELb0EEC2B8ue170006ISD_vEEOT_, symObjAddr: 0x25F0, symBinAddr: 0x100004588, symSize: 0x20 }
  - { offsetInCU: 0xC21C, offset: 0xC21C, size: 0x8, addend: 0x0, symName: __ZNSt3__19allocatorIN9HashTableINS_12basic_stringIcNS_11char_traitsIcEENS0_IcEEEEiNS_4hashIS6_EEE6BucketEE8allocateB8ue170006Em, symObjAddr: 0x2610, symBinAddr: 0x1000045A8, symSize: 0x5C }
  - { offsetInCU: 0xC250, offset: 0xC250, size: 0x8, addend: 0x0, symName: __ZNSt3__117__compressed_pairIPN9HashTableINS_12basic_stringIcNS_11char_traitsIcEENS_9allocatorIcEEEEiNS_4hashIS7_EEE6BucketERNS5_ISB_EEE6secondB8ue170006Ev, symObjAddr: 0x2750, symBinAddr: 0x1000046E8, symSize: 0x28 }
  - { offsetInCU: 0xC276, offset: 0xC276, size: 0x8, addend: 0x0, symName: __ZNSt3__122__compressed_pair_elemIRNS_9allocatorIN9HashTableINS_12basic_stringIcNS_11char_traitsIcEENS1_IcEEEEiNS_4hashIS7_EEE6BucketEEELi1ELb0EE5__getB8ue170006Ev, symObjAddr: 0x2778, symBinAddr: 0x100004710, symSize: 0x18 }
  - { offsetInCU: 0xC29C, offset: 0xC29C, size: 0x8, addend: 0x0, symName: __ZNSt3__117__compressed_pairIPN9HashTableINS_12basic_stringIcNS_11char_traitsIcEENS_9allocatorIcEEEEiNS_4hashIS7_EEE6BucketERNS5_ISB_EEE5firstB8ue170006Ev, symObjAddr: 0x2790, symBinAddr: 0x100004728, symSize: 0x24 }
  - { offsetInCU: 0xC2CC, offset: 0xC2CC, size: 0x8, addend: 0x0, symName: __ZNSt3__114__split_bufferIN9HashTableINS_12basic_stringIcNS_11char_traitsIcEENS_9allocatorIcEEEEiNS_4hashIS7_EEE6BucketERNS5_ISB_EEE21_ConstructTransactionC1B8ue170006EPPSB_m, symObjAddr: 0x27B4, symBinAddr: 0x10000474C, symSize: 0x3C }
  - { offsetInCU: 0xC312, offset: 0xC312, size: 0x8, addend: 0x0, symName: __ZNSt3__114__split_bufferIN9HashTableINS_12basic_stringIcNS_11char_traitsIcEENS_9allocatorIcEEEEiNS_4hashIS7_EEE6BucketERNS5_ISB_EEE21_ConstructTransactionD1B8ue170006Ev, symObjAddr: 0x27F0, symBinAddr: 0x100004788, symSize: 0x2C }
  - { offsetInCU: 0xC33C, offset: 0xC33C, size: 0x8, addend: 0x0, symName: __ZNSt3__114__split_bufferIN9HashTableINS_12basic_stringIcNS_11char_traitsIcEENS_9allocatorIcEEEEiNS_4hashIS7_EEE6BucketERNS5_ISB_EEE21_ConstructTransactionC2B8ue170006EPPSB_m, symObjAddr: 0x281C, symBinAddr: 0x1000047B4, symSize: 0x4C }
  - { offsetInCU: 0xC382, offset: 0xC382, size: 0x8, addend: 0x0, symName: __ZNSt3__114__split_bufferIN9HashTableINS_12basic_stringIcNS_11char_traitsIcEENS_9allocatorIcEEEEiNS_4hashIS7_EEE6BucketERNS5_ISB_EEE21_ConstructTransactionD2B8ue170006Ev, symObjAddr: 0x2868, symBinAddr: 0x100004800, symSize: 0x20 }
  - { offsetInCU: 0xC3AC, offset: 0xC3AC, size: 0x8, addend: 0x0, symName: __ZNSt3__116reverse_iteratorIPN9HashTableINS_12basic_stringIcNS_11char_traitsIcEENS_9allocatorIcEEEEiNS_4hashIS7_EEE6BucketEEC1B8ue170006ESC_, symObjAddr: 0x29B4, symBinAddr: 0x10000494C, symSize: 0x34 }
  - { offsetInCU: 0xC3E4, offset: 0xC3E4, size: 0x8, addend: 0x0, symName: __ZNKSt3__116reverse_iteratorIPN9HashTableINS_12basic_stringIcNS_11char_traitsIcEENS_9allocatorIcEEEEiNS_4hashIS7_EEE6BucketEE4baseB8ue170006Ev, symObjAddr: 0x29E8, symBinAddr: 0x100004980, symSize: 0x18 }
  - { offsetInCU: 0xC40A, offset: 0xC40A, size: 0x8, addend: 0x0, symName: __ZNKSt3__16vectorIN9HashTableINS_12basic_stringIcNS_11char_traitsIcEENS_9allocatorIcEEEEiNS_4hashIS7_EEE6BucketENS5_ISB_EEE14__annotate_newB8ue170006Em, symObjAddr: 0x2A3C, symBinAddr: 0x1000049D4, symSize: 0xC8 }
  - { offsetInCU: 0xC43F, offset: 0xC43F, size: 0x8, addend: 0x0, symName: __ZNSt3__129_AllocatorDestroyRangeReverseINS_9allocatorIN9HashTableINS_12basic_stringIcNS_11char_traitsIcEENS1_IcEEEEiNS_4hashIS7_EEE6BucketEEENS_16reverse_iteratorIPSB_EEEC1B8ue170006ERSC_RSF_SI_, symObjAddr: 0x2B50, symBinAddr: 0x100004AE8, symSize: 0x44 }
  - { offsetInCU: 0xC49B, offset: 0xC49B, size: 0x8, addend: 0x0, symName: __ZNSt3__116allocator_traitsINS_9allocatorIN9HashTableINS_12basic_stringIcNS_11char_traitsIcEENS1_IcEEEEiNS_4hashIS7_EEE6BucketEEEE9constructB8ue170006ISB_JSB_EvEEvRSC_PT_DpOT0_, symObjAddr: 0x2BDC, symBinAddr: 0x100004B74, symSize: 0x34 }
  - { offsetInCU: 0xC4F2, offset: 0xC4F2, size: 0x8, addend: 0x0, symName: __ZNKSt3__116reverse_iteratorIPN9HashTableINS_12basic_stringIcNS_11char_traitsIcEENS_9allocatorIcEEEEiNS_4hashIS7_EEE6BucketEEdeB8ue170006Ev, symObjAddr: 0x2C34, symBinAddr: 0x100004BCC, symSize: 0x28 }
  - { offsetInCU: 0xC526, offset: 0xC526, size: 0x8, addend: 0x0, symName: __ZNSt3__116reverse_iteratorIPN9HashTableINS_12basic_stringIcNS_11char_traitsIcEENS_9allocatorIcEEEEiNS_4hashIS7_EEE6BucketEEppB8ue170006Ev, symObjAddr: 0x2C5C, symBinAddr: 0x100004BF4, symSize: 0x20 }
  - { offsetInCU: 0xC54C, offset: 0xC54C, size: 0x8, addend: 0x0, symName: __ZNSt3__128__exception_guard_exceptionsINS_29_AllocatorDestroyRangeReverseINS_9allocatorIN9HashTableINS_12basic_stringIcNS_11char_traitsIcEENS2_IcEEEEiNS_4hashIS8_EEE6BucketEEENS_16reverse_iteratorIPSC_EEEEE10__completeB8ue170006Ev, symObjAddr: 0x2C7C, symBinAddr: 0x100004C14, symSize: 0x1C }
  - { offsetInCU: 0xC572, offset: 0xC572, size: 0x8, addend: 0x0, symName: __ZNSt3__128__exception_guard_exceptionsINS_29_AllocatorDestroyRangeReverseINS_9allocatorIN9HashTableINS_12basic_stringIcNS_11char_traitsIcEENS2_IcEEEEiNS_4hashIS8_EEE6BucketEEENS_16reverse_iteratorIPSC_EEEEED1B8ue170006Ev, symObjAddr: 0x2C98, symBinAddr: 0x100004C30, symSize: 0x2C }
  - { offsetInCU: 0xC59C, offset: 0xC59C, size: 0x8, addend: 0x0, symName: __ZNSt3__128__exception_guard_exceptionsINS_29_AllocatorDestroyRangeReverseINS_9allocatorIN9HashTableINS_12basic_stringIcNS_11char_traitsIcEENS2_IcEEEEiNS_4hashIS8_EEE6BucketEEENS_16reverse_iteratorIPSC_EEEEEC1B8ue170006ESH_, symObjAddr: 0x2CC4, symBinAddr: 0x100004C5C, symSize: 0x34 }
  - { offsetInCU: 0xC5D5, offset: 0xC5D5, size: 0x8, addend: 0x0, symName: __ZNSt3__128__exception_guard_exceptionsINS_29_AllocatorDestroyRangeReverseINS_9allocatorIN9HashTableINS_12basic_stringIcNS_11char_traitsIcEENS2_IcEEEEiNS_4hashIS8_EEE6BucketEEENS_16reverse_iteratorIPSC_EEEEEC2B8ue170006ESH_, symObjAddr: 0x2CF8, symBinAddr: 0x100004C90, symSize: 0x30 }
  - { offsetInCU: 0xC60E, offset: 0xC60E, size: 0x8, addend: 0x0, symName: __ZNSt3__129_AllocatorDestroyRangeReverseINS_9allocatorIN9HashTableINS_12basic_stringIcNS_11char_traitsIcEENS1_IcEEEEiNS_4hashIS7_EEE6BucketEEENS_16reverse_iteratorIPSB_EEEC2B8ue170006ERSC_RSF_SI_, symObjAddr: 0x2D28, symBinAddr: 0x100004CC0, symSize: 0x38 }
  - { offsetInCU: 0xC665, offset: 0xC665, size: 0x8, addend: 0x0, symName: __ZNSt3__19allocatorIN9HashTableINS_12basic_stringIcNS_11char_traitsIcEENS0_IcEEEEiNS_4hashIS6_EEE6BucketEE9constructB8ue170006ISA_JSA_EEEvPT_DpOT0_, symObjAddr: 0x2D60, symBinAddr: 0x100004CF8, symSize: 0x30 }
  - { offsetInCU: 0xC6BB, offset: 0xC6BB, size: 0x8, addend: 0x0, symName: __ZN9HashTableINSt3__112basic_stringIcNS0_11char_traitsIcEENS0_9allocatorIcEEEEiNS0_4hashIS6_EEE6BucketC1EOSA_, symObjAddr: 0x2D90, symBinAddr: 0x100004D28, symSize: 0x34 }
  - { offsetInCU: 0xC6F0, offset: 0xC6F0, size: 0x8, addend: 0x0, symName: __ZN9HashTableINSt3__112basic_stringIcNS0_11char_traitsIcEENS0_9allocatorIcEEEEiNS0_4hashIS6_EEE6BucketC2EOSA_, symObjAddr: 0x2DC4, symBinAddr: 0x100004D5C, symSize: 0x54 }
  - { offsetInCU: 0xC725, offset: 0xC725, size: 0x8, addend: 0x0, symName: __ZNSt3__112basic_stringIcNS_11char_traitsIcEENS_9allocatorIcEEEC1B8ue170006EOS5_, symObjAddr: 0x2E18, symBinAddr: 0x100004DB0, symSize: 0x34 }
  - { offsetInCU: 0xC75E, offset: 0xC75E, size: 0x8, addend: 0x0, symName: __ZNSt3__112basic_stringIcNS_11char_traitsIcEENS_9allocatorIcEEEC2B8ue170006EOS5_, symObjAddr: 0x2E4C, symBinAddr: 0x100004DE4, symSize: 0x48 }
  - { offsetInCU: 0xC79C, offset: 0xC79C, size: 0x8, addend: 0x0, symName: __ZNSt3__119__to_address_helperINS_16reverse_iteratorIPN9HashTableINS_12basic_stringIcNS_11char_traitsIcEENS_9allocatorIcEEEEiNS_4hashIS8_EEE6BucketEEEvE6__callB8ue170006ERKSE_, symObjAddr: 0x2E94, symBinAddr: 0x100004E2C, symSize: 0x38 }
  - { offsetInCU: 0xC7BF, offset: 0xC7BF, size: 0x8, addend: 0x0, symName: __ZNKSt3__116reverse_iteratorIPN9HashTableINS_12basic_stringIcNS_11char_traitsIcEENS_9allocatorIcEEEEiNS_4hashIS7_EEE6BucketEEptB8ue170006Ev, symObjAddr: 0x2ECC, symBinAddr: 0x100004E64, symSize: 0x24 }
  - { offsetInCU: 0xC7E5, offset: 0xC7E5, size: 0x8, addend: 0x0, symName: __ZNSt3__128__exception_guard_exceptionsINS_29_AllocatorDestroyRangeReverseINS_9allocatorIN9HashTableINS_12basic_stringIcNS_11char_traitsIcEENS2_IcEEEEiNS_4hashIS8_EEE6BucketEEENS_16reverse_iteratorIPSC_EEEEED2B8ue170006Ev, symObjAddr: 0x2EF0, symBinAddr: 0x100004E88, symSize: 0x50 }
  - { offsetInCU: 0xC80F, offset: 0xC80F, size: 0x8, addend: 0x0, symName: __ZNKSt3__129_AllocatorDestroyRangeReverseINS_9allocatorIN9HashTableINS_12basic_stringIcNS_11char_traitsIcEENS1_IcEEEEiNS_4hashIS7_EEE6BucketEEENS_16reverse_iteratorIPSB_EEEclB8ue170006Ev, symObjAddr: 0x2F40, symBinAddr: 0x100004ED8, symSize: 0xB4 }
  - { offsetInCU: 0xC836, offset: 0xC836, size: 0x8, addend: 0x0, symName: __ZNSt3__116reverse_iteratorINS0_IPN9HashTableINS_12basic_stringIcNS_11char_traitsIcEENS_9allocatorIcEEEEiNS_4hashIS7_EEE6BucketEEEEC1B8ue170006ESD_, symObjAddr: 0x3064, symBinAddr: 0x100004FFC, symSize: 0x3C }
  - { offsetInCU: 0xC86E, offset: 0xC86E, size: 0x8, addend: 0x0, symName: __ZNSt3__116reverse_iteratorINS0_IPN9HashTableINS_12basic_stringIcNS_11char_traitsIcEENS_9allocatorIcEEEEiNS_4hashIS7_EEE6BucketEEEEppB8ue170006Ev, symObjAddr: 0x3124, symBinAddr: 0x1000050BC, symSize: 0x30 }
  - { offsetInCU: 0xC894, offset: 0xC894, size: 0x8, addend: 0x0, symName: __ZNKSt3__116reverse_iteratorINS0_IPN9HashTableINS_12basic_stringIcNS_11char_traitsIcEENS_9allocatorIcEEEEiNS_4hashIS7_EEE6BucketEEEE4baseB8ue170006Ev, symObjAddr: 0x3154, symBinAddr: 0x1000050EC, symSize: 0x24 }
  - { offsetInCU: 0xC8BF, offset: 0xC8BF, size: 0x8, addend: 0x0, symName: __ZNSt3__119__to_address_helperINS_16reverse_iteratorINS1_IPN9HashTableINS_12basic_stringIcNS_11char_traitsIcEENS_9allocatorIcEEEEiNS_4hashIS8_EEE6BucketEEEEEvE6__callB8ue170006ERKSF_, symObjAddr: 0x3178, symBinAddr: 0x100005110, symSize: 0x38 }
  - { offsetInCU: 0xC8E2, offset: 0xC8E2, size: 0x8, addend: 0x0, symName: __ZNKSt3__116reverse_iteratorINS0_IPN9HashTableINS_12basic_stringIcNS_11char_traitsIcEENS_9allocatorIcEEEEiNS_4hashIS7_EEE6BucketEEEEptB8ue170006Ev, symObjAddr: 0x31B0, symBinAddr: 0x100005148, symSize: 0x24 }
  - { offsetInCU: 0xC908, offset: 0xC908, size: 0x8, addend: 0x0, symName: __ZNKSt3__116reverse_iteratorINS0_IPN9HashTableINS_12basic_stringIcNS_11char_traitsIcEENS_9allocatorIcEEEEiNS_4hashIS7_EEE6BucketEEEEdeB8ue170006Ev, symObjAddr: 0x31D4, symBinAddr: 0x10000516C, symSize: 0x34 }
  - { offsetInCU: 0xC93C, offset: 0xC93C, size: 0x8, addend: 0x0, symName: __ZNSt3__116reverse_iteratorIPN9HashTableINS_12basic_stringIcNS_11char_traitsIcEENS_9allocatorIcEEEEiNS_4hashIS7_EEE6BucketEEmmB8ue170006Ev, symObjAddr: 0x3208, symBinAddr: 0x1000051A0, symSize: 0x20 }
  - { offsetInCU: 0xC962, offset: 0xC962, size: 0x8, addend: 0x0, symName: __ZNSt3__116reverse_iteratorINS0_IPN9HashTableINS_12basic_stringIcNS_11char_traitsIcEENS_9allocatorIcEEEEiNS_4hashIS7_EEE6BucketEEEEC2B8ue170006ESD_, symObjAddr: 0x3228, symBinAddr: 0x1000051C0, symSize: 0x2C }
  - { offsetInCU: 0xC99A, offset: 0xC99A, size: 0x8, addend: 0x0, symName: __ZNSt3__116reverse_iteratorIPN9HashTableINS_12basic_stringIcNS_11char_traitsIcEENS_9allocatorIcEEEEiNS_4hashIS7_EEE6BucketEEC2B8ue170006ESC_, symObjAddr: 0x3254, symBinAddr: 0x1000051EC, symSize: 0x28 }
  - { offsetInCU: 0xC9D2, offset: 0xC9D2, size: 0x8, addend: 0x0, symName: __ZNSt3__114__split_bufferIN9HashTableINS_12basic_stringIcNS_11char_traitsIcEENS_9allocatorIcEEEEiNS_4hashIS7_EEE6BucketERNS5_ISB_EEED2Ev, symObjAddr: 0x327C, symBinAddr: 0x100005214, symSize: 0x8C }
  - { offsetInCU: 0xC9FE, offset: 0xC9FE, size: 0x8, addend: 0x0, symName: __ZNSt3__114__split_bufferIN9HashTableINS_12basic_stringIcNS_11char_traitsIcEENS_9allocatorIcEEEEiNS_4hashIS7_EEE6BucketERNS5_ISB_EEE5clearB8ue170006Ev, symObjAddr: 0x3308, symBinAddr: 0x1000052A0, symSize: 0x28 }
  - { offsetInCU: 0xCA24, offset: 0xCA24, size: 0x8, addend: 0x0, symName: __ZNKSt3__114__split_bufferIN9HashTableINS_12basic_stringIcNS_11char_traitsIcEENS_9allocatorIcEEEEiNS_4hashIS7_EEE6BucketERNS5_ISB_EEE8capacityB8ue170006Ev, symObjAddr: 0x3330, symBinAddr: 0x1000052C8, symSize: 0x40 }
  - { offsetInCU: 0xCA4A, offset: 0xCA4A, size: 0x8, addend: 0x0, symName: __ZNSt3__114__split_bufferIN9HashTableINS_12basic_stringIcNS_11char_traitsIcEENS_9allocatorIcEEEEiNS_4hashIS7_EEE6BucketERNS5_ISB_EEE17__destruct_at_endB8ue170006EPSB_, symObjAddr: 0x3370, symBinAddr: 0x100005308, symSize: 0x2C }
  - { offsetInCU: 0xCA7E, offset: 0xCA7E, size: 0x8, addend: 0x0, symName: __ZNSt3__114__split_bufferIN9HashTableINS_12basic_stringIcNS_11char_traitsIcEENS_9allocatorIcEEEEiNS_4hashIS7_EEE6BucketERNS5_ISB_EEE17__destruct_at_endB8ue170006EPSB_NS_17integral_constantIbLb0EEE, symObjAddr: 0x339C, symBinAddr: 0x100005334, symSize: 0x80 }
  - { offsetInCU: 0xCABE, offset: 0xCABE, size: 0x8, addend: 0x0, symName: __ZNKSt3__114__split_bufferIN9HashTableINS_12basic_stringIcNS_11char_traitsIcEENS_9allocatorIcEEEEiNS_4hashIS7_EEE6BucketERNS5_ISB_EEE9__end_capB8ue170006Ev, symObjAddr: 0x341C, symBinAddr: 0x1000053B4, symSize: 0x28 }
  - { offsetInCU: 0xCAE4, offset: 0xCAE4, size: 0x8, addend: 0x0, symName: __ZNKSt3__117__compressed_pairIPN9HashTableINS_12basic_stringIcNS_11char_traitsIcEENS_9allocatorIcEEEEiNS_4hashIS7_EEE6BucketERNS5_ISB_EEE5firstB8ue170006Ev, symObjAddr: 0x3444, symBinAddr: 0x1000053DC, symSize: 0x24 }
  - { offsetInCU: 0xCB0A, offset: 0xCB0A, size: 0x8, addend: 0x0, symName: __ZNKSt3__16vectorIN9HashTableINS_12basic_stringIcNS_11char_traitsIcEENS_9allocatorIcEEEEiNS_4hashIS7_EEE6BucketENS5_ISB_EEE17__annotate_shrinkB8ue170006Em, symObjAddr: 0x3468, symBinAddr: 0x100005400, symSize: 0xD0 }
  - { offsetInCU: 0xCB3F, offset: 0xCB3F, size: 0x8, addend: 0x0, symName: __ZN9HashTableINSt3__112basic_stringIcNS0_11char_traitsIcEENS0_9allocatorIcEEEEiNS0_4hashIS6_EEE15rehash_and_growEv, symObjAddr: 0x3538, symBinAddr: 0x1000054D0, symSize: 0x18C }
  - { offsetInCU: 0xCBE8, offset: 0xCBE8, size: 0x8, addend: 0x0, symName: __ZNKSt3__113__string_hashIcNS_9allocatorIcEEEclB8ue170006ERKNS_12basic_stringIcNS_11char_traitsIcEES2_EE, symObjAddr: 0x36C4, symBinAddr: 0x10000565C, symSize: 0x64 }
  - { offsetInCU: 0xCC1D, offset: 0xCC1D, size: 0x8, addend: 0x0, symName: __ZNSt3__16vectorIN9HashTableINS_12basic_stringIcNS_11char_traitsIcEENS_9allocatorIcEEEEiNS_4hashIS7_EEE6BucketENS5_ISB_EEEixB8ue170006Em, symObjAddr: 0x3728, symBinAddr: 0x1000056C0, symSize: 0x2C }
  - { offsetInCU: 0xCC54, offset: 0xCC54, size: 0x8, addend: 0x0, symName: __ZNSt3__16vectorIN9HashTableINS_12basic_stringIcNS_11char_traitsIcEENS_9allocatorIcEEEEiNS_4hashIS7_EEE6BucketENS5_ISB_EEEC1Em, symObjAddr: 0x389C, symBinAddr: 0x100005834, symSize: 0x34 }
  - { offsetInCU: 0xCC8F, offset: 0xCC8F, size: 0x8, addend: 0x0, symName: __ZNSt3__16vectorIN9HashTableINS_12basic_stringIcNS_11char_traitsIcEENS_9allocatorIcEEEEiNS_4hashIS7_EEE6BucketENS5_ISB_EEE5beginB8ue170006Ev, symObjAddr: 0x38D0, symBinAddr: 0x100005868, symSize: 0x30 }
  - { offsetInCU: 0xCCB7, offset: 0xCCB7, size: 0x8, addend: 0x0, symName: __ZNSt3__16vectorIN9HashTableINS_12basic_stringIcNS_11char_traitsIcEENS_9allocatorIcEEEEiNS_4hashIS7_EEE6BucketENS5_ISB_EEE3endB8ue170006Ev, symObjAddr: 0x3900, symBinAddr: 0x100005898, symSize: 0x30 }
  - { offsetInCU: 0xCCDF, offset: 0xCCDF, size: 0x8, addend: 0x0, symName: __ZNKSt3__111__wrap_iterIPN9HashTableINS_12basic_stringIcNS_11char_traitsIcEENS_9allocatorIcEEEEiNS_4hashIS7_EEE6BucketEEdeB8ue170006Ev, symObjAddr: 0x3964, symBinAddr: 0x1000058FC, symSize: 0x18 }
  - { offsetInCU: 0xCD05, offset: 0xCD05, size: 0x8, addend: 0x0, symName: __ZN9HashTableINSt3__112basic_stringIcNS0_11char_traitsIcEENS0_9allocatorIcEEEEiNS0_4hashIS6_EEE6BucketaSERKSA_, symObjAddr: 0x397C, symBinAddr: 0x100005914, symSize: 0x54 }
  - { offsetInCU: 0xCD36, offset: 0xCD36, size: 0x8, addend: 0x0, symName: __ZNSt3__111__wrap_iterIPN9HashTableINS_12basic_stringIcNS_11char_traitsIcEENS_9allocatorIcEEEEiNS_4hashIS7_EEE6BucketEEppB8ue170006Ev, symObjAddr: 0x39D0, symBinAddr: 0x100005968, symSize: 0x20 }
  - { offsetInCU: 0xCD5C, offset: 0xCD5C, size: 0x8, addend: 0x0, symName: __ZNSt3__16vectorIN9HashTableINS_12basic_stringIcNS_11char_traitsIcEENS_9allocatorIcEEEEiNS_4hashIS7_EEE6BucketENS5_ISB_EEE4swapERSD_, symObjAddr: 0x39F0, symBinAddr: 0x100005988, symSize: 0x84 }
  - { offsetInCU: 0xCD93, offset: 0xCD93, size: 0x8, addend: 0x0, symName: __ZNSt3__16vectorIN9HashTableINS_12basic_stringIcNS_11char_traitsIcEENS_9allocatorIcEEEEiNS_4hashIS7_EEE6BucketENS5_ISB_EEEC2Em, symObjAddr: 0x3A74, symBinAddr: 0x100005A0C, symSize: 0xD4 }
  - { offsetInCU: 0xCDE3, offset: 0xCDE3, size: 0x8, addend: 0x0, symName: __ZNSt3__16vectorIN9HashTableINS_12basic_stringIcNS_11char_traitsIcEENS_9allocatorIcEEEEiNS_4hashIS7_EEE6BucketENS5_ISB_EEE11__vallocateB8ue170006Em, symObjAddr: 0x3B88, symBinAddr: 0x100005B20, symSize: 0xB4 }
  - { offsetInCU: 0xCE27, offset: 0xCE27, size: 0x8, addend: 0x0, symName: __ZNSt3__128__exception_guard_exceptionsINS_6vectorIN9HashTableINS_12basic_stringIcNS_11char_traitsIcEENS_9allocatorIcEEEEiNS_4hashIS8_EEE6BucketENS6_ISC_EEE16__destroy_vectorEE10__completeB8ue170006Ev, symObjAddr: 0x3C3C, symBinAddr: 0x100005BD4, symSize: 0x1C }
  - { offsetInCU: 0xCE4D, offset: 0xCE4D, size: 0x8, addend: 0x0, symName: __ZNSt3__128__exception_guard_exceptionsINS_6vectorIN9HashTableINS_12basic_stringIcNS_11char_traitsIcEENS_9allocatorIcEEEEiNS_4hashIS8_EEE6BucketENS6_ISC_EEE16__destroy_vectorEED1B8ue170006Ev, symObjAddr: 0x3C58, symBinAddr: 0x100005BF0, symSize: 0x2C }
  - { offsetInCU: 0xCE77, offset: 0xCE77, size: 0x8, addend: 0x0, symName: __ZNSt3__128__exception_guard_exceptionsINS_6vectorIN9HashTableINS_12basic_stringIcNS_11char_traitsIcEENS_9allocatorIcEEEEiNS_4hashIS8_EEE6BucketENS6_ISC_EEE16__destroy_vectorEEC1B8ue170006ESF_, symObjAddr: 0x3C84, symBinAddr: 0x100005C1C, symSize: 0x34 }
  - { offsetInCU: 0xCEAF, offset: 0xCEAF, size: 0x8, addend: 0x0, symName: __ZNSt3__128__exception_guard_exceptionsINS_6vectorIN9HashTableINS_12basic_stringIcNS_11char_traitsIcEENS_9allocatorIcEEEEiNS_4hashIS8_EEE6BucketENS6_ISC_EEE16__destroy_vectorEEC2B8ue170006ESF_, symObjAddr: 0x3CB8, symBinAddr: 0x100005C50, symSize: 0x24 }
  - { offsetInCU: 0xCEE7, offset: 0xCEE7, size: 0x8, addend: 0x0, symName: __ZNSt3__128__exception_guard_exceptionsINS_6vectorIN9HashTableINS_12basic_stringIcNS_11char_traitsIcEENS_9allocatorIcEEEEiNS_4hashIS8_EEE6BucketENS6_ISC_EEE16__destroy_vectorEED2B8ue170006Ev, symObjAddr: 0x3CDC, symBinAddr: 0x100005C74, symSize: 0x48 }
  - { offsetInCU: 0xCF11, offset: 0xCF11, size: 0x8, addend: 0x0, symName: __ZNSt3__16vectorIN9HashTableINS_12basic_stringIcNS_11char_traitsIcEENS_9allocatorIcEEEEiNS_4hashIS7_EEE6BucketENS5_ISB_EEE11__make_iterB8ue170006EPSB_, symObjAddr: 0x3D24, symBinAddr: 0x100005CBC, symSize: 0x30 }
  - { offsetInCU: 0xCF46, offset: 0xCF46, size: 0x8, addend: 0x0, symName: __ZNSt3__111__wrap_iterIPN9HashTableINS_12basic_stringIcNS_11char_traitsIcEENS_9allocatorIcEEEEiNS_4hashIS7_EEE6BucketEEC1B8ue170006ESC_, symObjAddr: 0x3D54, symBinAddr: 0x100005CEC, symSize: 0x34 }
  - { offsetInCU: 0xCF7E, offset: 0xCF7E, size: 0x8, addend: 0x0, symName: __ZNSt3__111__wrap_iterIPN9HashTableINS_12basic_stringIcNS_11char_traitsIcEENS_9allocatorIcEEEEiNS_4hashIS7_EEE6BucketEEC2B8ue170006ESC_, symObjAddr: 0x3D88, symBinAddr: 0x100005D20, symSize: 0x20 }
  - { offsetInCU: 0xCFB6, offset: 0xCFB6, size: 0x8, addend: 0x0, symName: __ZNKSt3__111__wrap_iterIPN9HashTableINS_12basic_stringIcNS_11char_traitsIcEENS_9allocatorIcEEEEiNS_4hashIS7_EEE6BucketEE4baseB8ue170006Ev, symObjAddr: 0x3DF0, symBinAddr: 0x100005D88, symSize: 0x18 }
  - { offsetInCU: 0xCFDC, offset: 0xCFDC, size: 0x8, addend: 0x0, symName: __ZNKSt3__112basic_stringIcNS_11char_traitsIcEENS_9allocatorIcEEE4dataB8ue170006Ev, symObjAddr: 0x3E58, symBinAddr: 0x100005DF0, symSize: 0x28 }
  - { offsetInCU: 0xD002, offset: 0xD002, size: 0x8, addend: 0x0, symName: __ZNKSt3__112basic_stringIcNS_11char_traitsIcEENS_9allocatorIcEEE4sizeB8ue170006Ev, symObjAddr: 0x3E80, symBinAddr: 0x100005E18, symSize: 0x54 }
  - { offsetInCU: 0xD028, offset: 0xD028, size: 0x8, addend: 0x0, symName: __ZNKSt3__121__murmur2_or_cityhashImLm64EEclB8ue170006EPKvm, symObjAddr: 0x3ED4, symBinAddr: 0x100005E6C, symSize: 0x410 }
  - { offsetInCU: 0xD0C2, offset: 0xD0C2, size: 0x8, addend: 0x0, symName: __ZNSt3__121__murmur2_or_cityhashImLm64EE18__hash_len_0_to_16B8ue170006EPKcm, symObjAddr: 0x42E4, symBinAddr: 0x10000627C, symSize: 0x1C0 }
  - { offsetInCU: 0xD19B, offset: 0xD19B, size: 0x8, addend: 0x0, symName: __ZNSt3__121__murmur2_or_cityhashImLm64EE19__hash_len_17_to_32B8ue170006EPKcm, symObjAddr: 0x44A4, symBinAddr: 0x10000643C, symSize: 0x130 }
  - { offsetInCU: 0xD204, offset: 0xD204, size: 0x8, addend: 0x0, symName: __ZNSt3__121__murmur2_or_cityhashImLm64EE19__hash_len_33_to_64B8ue170006EPKcm, symObjAddr: 0x45D4, symBinAddr: 0x10000656C, symSize: 0x2B8 }
  - { offsetInCU: 0xD2B9, offset: 0xD2B9, size: 0x8, addend: 0x0, symName: __ZNSt3__121__murmur2_or_cityhashImLm64EE13__hash_len_16B8ue170006Emm, symObjAddr: 0x48AC, symBinAddr: 0x100006844, symSize: 0x80 }
  - { offsetInCU: 0xD314, offset: 0xD314, size: 0x8, addend: 0x0, symName: __ZNSt3__121__murmur2_or_cityhashImLm64EE29__weak_hash_len_32_with_seedsB8ue170006EPKcmm, symObjAddr: 0x492C, symBinAddr: 0x1000068C4, symSize: 0x88 }
  - { offsetInCU: 0xD353, offset: 0xD353, size: 0x8, addend: 0x0, symName: __ZNSt3__121__murmur2_or_cityhashImLm64EE8__rotateB8ue170006Emi, symObjAddr: 0x49B4, symBinAddr: 0x10000694C, symSize: 0x64 }
  - { offsetInCU: 0xD384, offset: 0xD384, size: 0x8, addend: 0x0, symName: __ZNSt3__14pairImmEaSB8ue170006EOS1_, symObjAddr: 0x4A18, symBinAddr: 0x1000069B0, symSize: 0x30 }
  - { offsetInCU: 0xD3B9, offset: 0xD3B9, size: 0x8, addend: 0x0, symName: __ZNSt3__121__murmur2_or_cityhashImLm64EE11__shift_mixB8ue170006Em, symObjAddr: 0x4A84, symBinAddr: 0x100006A1C, symSize: 0x1C }
  - { offsetInCU: 0xD3DC, offset: 0xD3DC, size: 0x8, addend: 0x0, symName: __ZNSt3__121__murmur2_or_cityhashImLm64EE22__rotate_by_at_least_1B8ue170006Emi, symObjAddr: 0x4AA0, symBinAddr: 0x100006A38, symSize: 0x38 }
  - { offsetInCU: 0xD40D, offset: 0xD40D, size: 0x8, addend: 0x0, symName: __ZNSt3__121__murmur2_or_cityhashImLm64EE29__weak_hash_len_32_with_seedsB8ue170006Emmmmmm, symObjAddr: 0x4AF8, symBinAddr: 0x100006A90, symSize: 0xD8 }
  - { offsetInCU: 0xD489, offset: 0xD489, size: 0x8, addend: 0x0, symName: __ZNSt3__14pairImmEC1B8ue170006ImmLPv0EEEOT_OT0_, symObjAddr: 0x4BD0, symBinAddr: 0x100006B68, symSize: 0x3C }
  - { offsetInCU: 0xD4E7, offset: 0xD4E7, size: 0x8, addend: 0x0, symName: __ZNSt3__14pairImmEC2B8ue170006ImmLPv0EEEOT_OT0_, symObjAddr: 0x4C0C, symBinAddr: 0x100006BA4, symSize: 0x34 }
  - { offsetInCU: 0xD545, offset: 0xD545, size: 0x8, addend: 0x0, symName: __ZNKSt3__112basic_stringIcNS_11char_traitsIcEENS_9allocatorIcEEE13__get_pointerB8ue170006Ev, symObjAddr: 0x4C54, symBinAddr: 0x100006BEC, symSize: 0x54 }
  - { offsetInCU: 0xD56B, offset: 0xD56B, size: 0x8, addend: 0x0, symName: __ZNKSt3__112basic_stringIcNS_11char_traitsIcEENS_9allocatorIcEEE9__is_longB8ue170006Ev, symObjAddr: 0x4CA8, symBinAddr: 0x100006C40, symSize: 0x38 }
  - { offsetInCU: 0xD591, offset: 0xD591, size: 0x8, addend: 0x0, symName: __ZNKSt3__112basic_stringIcNS_11char_traitsIcEENS_9allocatorIcEEE18__get_long_pointerB8ue170006Ev, symObjAddr: 0x4CE0, symBinAddr: 0x100006C78, symSize: 0x28 }
  - { offsetInCU: 0xD5B7, offset: 0xD5B7, size: 0x8, addend: 0x0, symName: __ZNKSt3__112basic_stringIcNS_11char_traitsIcEENS_9allocatorIcEEE19__get_short_pointerB8ue170006Ev, symObjAddr: 0x4D08, symBinAddr: 0x100006CA0, symSize: 0x28 }
  - { offsetInCU: 0xD5DD, offset: 0xD5DD, size: 0x8, addend: 0x0, symName: __ZNKSt3__117__compressed_pairINS_12basic_stringIcNS_11char_traitsIcEENS_9allocatorIcEEE5__repES5_E5firstB8ue170006Ev, symObjAddr: 0x4D30, symBinAddr: 0x100006CC8, symSize: 0x24 }
  - { offsetInCU: 0xD603, offset: 0xD603, size: 0x8, addend: 0x0, symName: __ZNKSt3__122__compressed_pair_elemINS_12basic_stringIcNS_11char_traitsIcEENS_9allocatorIcEEE5__repELi0ELb0EE5__getB8ue170006Ev, symObjAddr: 0x4D54, symBinAddr: 0x100006CEC, symSize: 0x14 }
  - { offsetInCU: 0xD629, offset: 0xD629, size: 0x8, addend: 0x0, symName: __ZNSt3__114pointer_traitsIPKcE10pointer_toB8ue170006ERS1_, symObjAddr: 0x4D68, symBinAddr: 0x100006D00, symSize: 0x14 }
  - { offsetInCU: 0xD64C, offset: 0xD64C, size: 0x8, addend: 0x0, symName: __ZNKSt3__112basic_stringIcNS_11char_traitsIcEENS_9allocatorIcEEE15__get_long_sizeB8ue170006Ev, symObjAddr: 0x4D7C, symBinAddr: 0x100006D14, symSize: 0x28 }
  - { offsetInCU: 0xD672, offset: 0xD672, size: 0x8, addend: 0x0, symName: __ZNKSt3__112basic_stringIcNS_11char_traitsIcEENS_9allocatorIcEEE16__get_short_sizeB8ue170006Ev, symObjAddr: 0x4DA4, symBinAddr: 0x100006D3C, symSize: 0x34 }
  - { offsetInCU: 0xD698, offset: 0xD698, size: 0x8, addend: 0x0, symName: __ZNSt3__111char_traitsIcE7compareB8ue170006EPKcS3_m, symObjAddr: 0x4DD8, symBinAddr: 0x100006D70, symSize: 0x34 }
  - { offsetInCU: 0xD6D7, offset: 0xD6D7, size: 0x8, addend: 0x0, symName: __ZNSt3__112basic_stringIcNS_11char_traitsIcEENS_9allocatorIcEEEC2B8ue170006ILi0EEEPKc, symObjAddr: 0x4E0C, symBinAddr: 0x100006DA4, symSize: 0x58 }
  - { offsetInCU: 0xD716, offset: 0xD716, size: 0x8, addend: 0x0, symName: __ZNSt3__111char_traitsIcE6lengthB8ue170006EPKc, symObjAddr: 0x4E64, symBinAddr: 0x100006DFC, symSize: 0x34 }
  - { offsetInCU: 0xD757, offset: 0xD757, size: 0x8, addend: 0x0, symName: __ZNKSt3__113basic_ostreamIcNS_11char_traitsIcEEE6sentrycvbB8ue170006Ev, symObjAddr: 0x50A8, symBinAddr: 0x100007040, symSize: 0x1C }
  - { offsetInCU: 0xD77D, offset: 0xD77D, size: 0x8, addend: 0x0, symName: __ZNSt3__119ostreambuf_iteratorIcNS_11char_traitsIcEEEC1B8ue170006ERNS_13basic_ostreamIcS2_EE, symObjAddr: 0x5304, symBinAddr: 0x10000729C, symSize: 0x34 }
  - { offsetInCU: 0xD7B5, offset: 0xD7B5, size: 0x8, addend: 0x0, symName: __ZNKSt3__18ios_base5flagsB8ue170006Ev, symObjAddr: 0x5338, symBinAddr: 0x1000072D0, symSize: 0x18 }
  - { offsetInCU: 0xD7DD, offset: 0xD7DD, size: 0x8, addend: 0x0, symName: __ZNKSt3__19basic_iosIcNS_11char_traitsIcEEE4fillB8ue170006Ev, symObjAddr: 0x5350, symBinAddr: 0x1000072E8, symSize: 0x64 }
  - { offsetInCU: 0xD805, offset: 0xD805, size: 0x8, addend: 0x0, symName: __ZNKSt3__119ostreambuf_iteratorIcNS_11char_traitsIcEEE6failedB8ue170006Ev, symObjAddr: 0x53B4, symBinAddr: 0x10000734C, symSize: 0x24 }
  - { offsetInCU: 0xD82B, offset: 0xD82B, size: 0x8, addend: 0x0, symName: __ZNSt3__19basic_iosIcNS_11char_traitsIcEEE8setstateB8ue170006Ej, symObjAddr: 0x53D8, symBinAddr: 0x100007370, symSize: 0x2C }
  - { offsetInCU: 0xD860, offset: 0xD860, size: 0x8, addend: 0x0, symName: __ZNKSt3__18ios_base5widthB8ue170006Ev, symObjAddr: 0x5404, symBinAddr: 0x10000739C, symSize: 0x18 }
  - { offsetInCU: 0xD888, offset: 0xD888, size: 0x8, addend: 0x0, symName: __ZNSt3__115basic_streambufIcNS_11char_traitsIcEEE5sputnB8ue170006EPKcl, symObjAddr: 0x541C, symBinAddr: 0x1000073B4, symSize: 0x3C }
  - { offsetInCU: 0xD8CA, offset: 0xD8CA, size: 0x8, addend: 0x0, symName: __ZNSt3__112basic_stringIcNS_11char_traitsIcEENS_9allocatorIcEEEC1B8ue170006Emc, symObjAddr: 0x5458, symBinAddr: 0x1000073F0, symSize: 0x3C }
  - { offsetInCU: 0xD912, offset: 0xD912, size: 0x8, addend: 0x0, symName: __ZNSt3__112basic_stringIcNS_11char_traitsIcEENS_9allocatorIcEEE4dataB8ue170006Ev, symObjAddr: 0x5494, symBinAddr: 0x10000742C, symSize: 0x28 }
  - { offsetInCU: 0xD938, offset: 0xD938, size: 0x8, addend: 0x0, symName: __ZNSt3__18ios_base5widthB8ue170006El, symObjAddr: 0x54BC, symBinAddr: 0x100007454, symSize: 0x2C }
  - { offsetInCU: 0xD97E, offset: 0xD97E, size: 0x8, addend: 0x0, symName: __ZNSt3__112basic_stringIcNS_11char_traitsIcEENS_9allocatorIcEEEC2B8ue170006Emc, symObjAddr: 0x54E8, symBinAddr: 0x100007480, symSize: 0x4C }
  - { offsetInCU: 0xD9C6, offset: 0xD9C6, size: 0x8, addend: 0x0, symName: __ZNSt3__112basic_stringIcNS_11char_traitsIcEENS_9allocatorIcEEE13__get_pointerB8ue170006Ev, symObjAddr: 0x5548, symBinAddr: 0x1000074E0, symSize: 0x54 }
  - { offsetInCU: 0xD9EC, offset: 0xD9EC, size: 0x8, addend: 0x0, symName: __ZNSt3__112basic_stringIcNS_11char_traitsIcEENS_9allocatorIcEEE18__get_long_pointerB8ue170006Ev, symObjAddr: 0x559C, symBinAddr: 0x100007534, symSize: 0x28 }
  - { offsetInCU: 0xDA12, offset: 0xDA12, size: 0x8, addend: 0x0, symName: __ZNSt3__112basic_stringIcNS_11char_traitsIcEENS_9allocatorIcEEE19__get_short_pointerB8ue170006Ev, symObjAddr: 0x55C4, symBinAddr: 0x10000755C, symSize: 0x28 }
  - { offsetInCU: 0xDA38, offset: 0xDA38, size: 0x8, addend: 0x0, symName: __ZNSt3__114pointer_traitsIPcE10pointer_toB8ue170006ERc, symObjAddr: 0x55EC, symBinAddr: 0x100007584, symSize: 0x14 }
  - { offsetInCU: 0xDA5B, offset: 0xDA5B, size: 0x8, addend: 0x0, symName: __ZNSt3__119ostreambuf_iteratorIcNS_11char_traitsIcEEEC2B8ue170006ERNS_13basic_ostreamIcS2_EE, symObjAddr: 0x5600, symBinAddr: 0x100007598, symSize: 0x54 }
  - { offsetInCU: 0xDA93, offset: 0xDA93, size: 0x8, addend: 0x0, symName: __ZNKSt3__19basic_iosIcNS_11char_traitsIcEEE5rdbufB8ue170006Ev, symObjAddr: 0x5654, symBinAddr: 0x1000075EC, symSize: 0x24 }
  - { offsetInCU: 0xDABB, offset: 0xDABB, size: 0x8, addend: 0x0, symName: __ZNKSt3__18ios_base5rdbufB8ue170006Ev, symObjAddr: 0x5678, symBinAddr: 0x100007610, symSize: 0x18 }
  - { offsetInCU: 0xDAE1, offset: 0xDAE1, size: 0x8, addend: 0x0, symName: __ZNSt3__111char_traitsIcE11eq_int_typeB8ue170006Eii, symObjAddr: 0x5690, symBinAddr: 0x100007628, symSize: 0x28 }
  - { offsetInCU: 0xDB14, offset: 0xDB14, size: 0x8, addend: 0x0, symName: __ZNSt3__111char_traitsIcE3eofB8ue170006Ev, symObjAddr: 0x56B8, symBinAddr: 0x100007650, symSize: 0x8 }
  - { offsetInCU: 0xDB28, offset: 0xDB28, size: 0x8, addend: 0x0, symName: __ZNKSt3__19basic_iosIcNS_11char_traitsIcEEE5widenB8ue170006Ec, symObjAddr: 0x56C0, symBinAddr: 0x100007658, symSize: 0x84 }
  - { offsetInCU: 0xDB96, offset: 0xDB96, size: 0x8, addend: 0x0, symName: __ZNKSt3__15ctypeIcE5widenB8ue170006Ec, symObjAddr: 0x5770, symBinAddr: 0x100007708, symSize: 0x38 }
  - { offsetInCU: 0xDBCB, offset: 0xDBCB, size: 0x8, addend: 0x0, symName: __ZNSt3__18ios_base8setstateB8ue170006Ej, symObjAddr: 0x57A8, symBinAddr: 0x100007740, symSize: 0x34 }
...
